; Function Attrs: mustprogress uwtable
define hidden noundef nonnull align 8 dereferenceable(8) ptr @_ZN7datalog12rule_manager20collect_rule_vars_exEPNS_4ruleEP3app(ptr noundef nonnull align 8 dereferenceable(1368) %this, ptr nocapture noundef readonly %r, ptr noundef readnone %t) local_unnamed_addr #3 align 2 {
entry:
  %m_var_idx.i = getelementptr inbounds i8, ptr %this, i64 288
  %0 = load ptr, ptr %m_var_idx.i, align 8
  %tobool.not.i.i.i = icmp eq ptr %0, null
  br i1 %tobool.not.i.i.i, label %_ZN7datalog12rule_manager18reset_collect_varsEv.exit, label %if.then.i.i.i

if.then.i.i.i:                                    ; preds = %entry
  %arrayidx.i.i.i = getelementptr inbounds i8, ptr %0, i64 -4
  store i32 0, ptr %arrayidx.i.i.i, align 4
  br label %_ZN7datalog12rule_manager18reset_collect_varsEv.exit

_ZN7datalog12rule_manager18reset_collect_varsEv.exit: ; preds = %entry, %if.then.i.i.i
  %m_free_vars.i = getelementptr inbounds i8, ptr %this, i64 296
  tail call void @_ZN14expr_free_vars5resetEv(ptr noundef nonnull align 8 dereferenceable(40) %m_free_vars.i)
  %m_tail_size.i = getelementptr inbounds i8, ptr %r, i64 56
  %1 = load i32, ptr %m_tail_size.i, align 8
  %m_head.i = getelementptr inbounds i8, ptr %r, i64 40
  %2 = load ptr, ptr %m_head.i, align 8
  tail call void @_ZN14expr_free_vars10accumulateEP4expr(ptr noundef nonnull align 8 dereferenceable(40) %m_free_vars.i, ptr noundef %2)
  %cmp13.not = icmp eq i32 %1, 0
  br i1 %cmp13.not, label %for.end, label %for.body.lr.ph

for.body.lr.ph:                                   ; preds = %_ZN7datalog12rule_manager18reset_collect_varsEv.exit
  %m_tail.i = getelementptr inbounds i8, ptr %r, i64 80
  %wide.trip.count = zext i32 %1 to i64
  br label %for.body

for.body:                                         ; preds = %for.body.lr.ph, %for.inc
  %indvars.iv = phi i64 [ 0, %for.body.lr.ph ], [ %indvars.iv.next, %for.inc ]
  %arrayidx.i = getelementptr inbounds [0 x ptr], ptr %m_tail.i, i64 0, i64 %indvars.iv
  %3 = load ptr, ptr %arrayidx.i, align 8
  %4 = ptrtoint ptr %3 to i64
  %and.i = and i64 %4, -8
  %5 = inttoptr i64 %and.i to ptr
  %cmp4.not = icmp eq ptr %5, %t
  br i1 %cmp4.not, label %for.inc, label %if.then

if.then:                                          ; preds = %for.body
  tail call void @_ZN14expr_free_vars10accumulateEP4expr(ptr noundef nonnull align 8 dereferenceable(40) %m_free_vars.i, ptr noundef %5)
  br label %for.inc

for.inc:                                          ; preds = %for.body, %if.then
  %indvars.iv.next = add nuw nsw i64 %indvars.iv, 1
  %exitcond.not = icmp eq i64 %indvars.iv.next, %wide.trip.count
  br i1 %exitcond.not, label %for.end, label %for.body, !llvm.loop !11

for.end:                                          ; preds = %for.inc, %_ZN7datalog12rule_manager18reset_collect_varsEv.exit
  %call6 = tail call noundef nonnull align 8 dereferenceable(8) ptr @_ZN7datalog12rule_manager21finalize_collect_varsEv(ptr noundef nonnull align 8 dereferenceable(1368) %this)
  ret ptr %call6
}